target datalayout = "e-m:e-p270:32:32-p271:32:32-p272:64:64-i64:64-i128:128-f80:128-n8:16:32:64-S128"
target triple = "x86_64-pc-linux-gnu"

%struct._rtsp_info_value_t = type { i32, ptr, i32, ptr, ptr }

@rtsp_stat_info = internal global ptr null, align 8
@g_ascii_table = external constant ptr, align 8
@.str.121 = private unnamed_addr constant [6 x i8] c"RTSP/\00", align 1
@rtsp_methods = internal global [11 x ptr] [ptr @.str.122, ptr @.str.123, ptr @.str.124, ptr @.str.125, ptr @.str.126, ptr @.str.127, ptr @.str.128, ptr @.str.129, ptr @.str.130, ptr @.str.131, ptr @.str.132], align 16

; Function Attrs: alwaysinline nounwind
define internal ptr @memcpy.inline(ptr noalias %0, ptr noalias %1, i64 %2) #4 {
  %4 = alloca ptr, align 8
  %5 = alloca ptr, align 8
  %6 = alloca i64, align 8
  store ptr %0, ptr %4, align 8
  store ptr %1, ptr %5, align 8
  store i64 %2, ptr %6, align 8
  %7 = load ptr, ptr %4, align 8
  %8 = load ptr, ptr %5, align 8
  %9 = load i64, ptr %6, align 8
  %10 = load ptr, ptr %4, align 8
  %11 = call i64 @llvm.objectsize.i64.p0(ptr %10, i1 false, i1 true, i1 true)
  %12 = call ptr @__memcpy_chk(ptr noundef %7, ptr noundef %8, i64 noundef %9, i64 noundef %11) #11
  ret ptr %12
}

; Function Attrs: null_pointer_is_valid sspstrong uwtable
define internal zeroext i1 @is_rtsp_request_or_reply(ptr noundef %0, i64 noundef %1, ptr noundef %2) #0 {
  %4 = alloca i1, align 1
  %5 = alloca ptr, align 8
  %6 = alloca i64, align 8
  %7 = alloca ptr, align 8
  %8 = alloca i32, align 4
  %9 = alloca ptr, align 8
  %10 = alloca ptr, align 8
  %11 = alloca i32, align 4
  %12 = alloca [4 x i8], align 1
  %13 = alloca i32, align 4
  %14 = alloca i64, align 8
  store ptr %0, ptr %5, align 8
  store i64 %1, ptr %6, align 8
  store ptr %2, ptr %7, align 8
  call void @llvm.lifetime.start.p0(i64 4, ptr %8) #11
  call void @llvm.lifetime.start.p0(i64 8, ptr %9) #11
  call void @llvm.lifetime.start.p0(i64 8, ptr %10) #11
  call void @llvm.lifetime.start.p0(i64 4, ptr %11) #11
  call void @llvm.lifetime.start.p0(i64 4, ptr %12) #11
  %15 = load i64, ptr %6, align 8
  %16 = icmp uge i64 %15, 5
  br i1 %16, label %17, label %49

17:                                               ; preds = %3
  %18 = load ptr, ptr %5, align 8
  %19 = call i32 @g_ascii_strncasecmp(ptr noundef @.str.121, ptr noundef %18, i64 noundef 5)
  %20 = icmp eq i32 %19, 0
  br i1 %20, label %21, label %49

21:                                               ; preds = %17
  %22 = load ptr, ptr %7, align 8
  store i32 1, ptr %22, align 4
  %23 = load ptr, ptr %5, align 8
  %24 = load ptr, ptr %5, align 8
  %25 = load i64, ptr %6, align 8
  %26 = getelementptr i8, ptr %24, i64 %25
  %27 = call i32 @get_token_len(ptr noundef %23, ptr noundef %26, ptr noundef %9)
  store i32 %27, ptr %11, align 4
  %28 = load i32, ptr %11, align 4
  %29 = icmp ne i32 %28, 0
  br i1 %29, label %30, label %48

30:                                               ; preds = %21
  %31 = load ptr, ptr %9, align 8
  %32 = load ptr, ptr %5, align 8
  %33 = load i64, ptr %6, align 8
  %34 = getelementptr i8, ptr %32, i64 %33
  %35 = call i32 @get_token_len(ptr noundef %31, ptr noundef %34, ptr noundef %10)
  store i32 %35, ptr %11, align 4
  %36 = load i32, ptr %11, align 4
  %37 = icmp sge i32 %36, 3
  br i1 %37, label %38, label %47

38:                                               ; preds = %30
  %39 = getelementptr inbounds [4 x i8], ptr %12, i64 0, i64 0
  %40 = load ptr, ptr %9, align 8
  %41 = call ptr @memcpy.inline(ptr noundef %39, ptr noundef %40, i64 noundef 3) #11
  %42 = getelementptr [4 x i8], ptr %12, i64 0, i64 3
  store i8 0, ptr %42, align 1
  %43 = getelementptr inbounds [4 x i8], ptr %12, i64 0, i64 0
  %44 = load ptr, ptr @rtsp_stat_info, align 8
  %45 = getelementptr inbounds nuw %struct._rtsp_info_value_t, ptr %44, i32 0, i32 2
  %46 = call zeroext i1 @ws_strtou32(ptr noundef %43, ptr noundef null, ptr noundef %45)
  br label %47

47:                                               ; preds = %38, %30
  br label %48

48:                                               ; preds = %47, %21
  store i1 true, ptr %4, align 1
  store i32 1, ptr %13, align 4
  br label %109

49:                                               ; preds = %17, %3
  store i32 0, ptr %8, align 4
  br label %50

50:                                               ; preds = %104, %49
  %51 = load i32, ptr %8, align 4
  %52 = zext i32 %51 to i64
  %53 = icmp ult i64 %52, 11
  br i1 %53, label %54, label %107

54:                                               ; preds = %50
  call void @llvm.lifetime.start.p0(i64 8, ptr %14) #11
  %55 = load i32, ptr %8, align 4
  %56 = zext i32 %55 to i64
  %57 = getelementptr [11 x ptr], ptr @rtsp_methods, i64 0, i64 %56
  %58 = load ptr, ptr %57, align 8
  %59 = call i64 @strlen(ptr noundef %58) #13
  store i64 %59, ptr %14, align 8
  %60 = load i64, ptr %6, align 8
  %61 = load i64, ptr %14, align 8
  %62 = icmp uge i64 %60, %61
  br i1 %62, label %63, label %100

63:                                               ; preds = %54
  %64 = load i32, ptr %8, align 4
  %65 = zext i32 %64 to i64
  %66 = getelementptr [11 x ptr], ptr @rtsp_methods, i64 0, i64 %65
  %67 = load ptr, ptr %66, align 8
  %68 = load ptr, ptr %5, align 8
  %69 = load i64, ptr %14, align 8
  %70 = call i32 @g_ascii_strncasecmp(ptr noundef %67, ptr noundef %68, i64 noundef %69)
  %71 = icmp eq i32 %70, 0
  br i1 %71, label %72, label %100

72:                                               ; preds = %63
  %73 = load i64, ptr %14, align 8
  %74 = load i64, ptr %6, align 8
  %75 = icmp eq i64 %73, %74
  br i1 %75, label %88, label %76

76:                                               ; preds = %72
  %77 = load ptr, ptr @g_ascii_table, align 8
  %78 = load ptr, ptr %5, align 8
  %79 = load i64, ptr %14, align 8
  %80 = getelementptr i8, ptr %78, i64 %79
  %81 = load i8, ptr %80, align 1
  %82 = zext i8 %81 to i64
  %83 = getelementptr i16, ptr %77, i64 %82
  %84 = load i16, ptr %83, align 2
  %85 = zext i16 %84 to i32
  %86 = and i32 %85, 256
  %87 = icmp ne i32 %86, 0
  br i1 %87, label %88, label %100

88:                                               ; preds = %76, %72
  %89 = load ptr, ptr %7, align 8
  store i32 0, ptr %89, align 4
  %90 = call ptr @wmem_packet_scope()
  %91 = load i32, ptr %8, align 4
  %92 = zext i32 %91 to i64
  %93 = getelementptr [11 x ptr], ptr @rtsp_methods, i64 0, i64 %92
  %94 = load ptr, ptr %93, align 8
  %95 = load i64, ptr %14, align 8
  %96 = add i64 %95, 1
  %97 = call noalias ptr @wmem_strndup(ptr noundef %90, ptr noundef %94, i64 noundef %96)
  %98 = load ptr, ptr @rtsp_stat_info, align 8
  %99 = getelementptr inbounds nuw %struct._rtsp_info_value_t, ptr %98, i32 0, i32 1
  store ptr %97, ptr %99, align 8
  store i1 true, ptr %4, align 1
  store i32 1, ptr %13, align 4
  br label %101

100:                                              ; preds = %76, %63, %54
  store i32 0, ptr %13, align 4
  br label %101

101:                                              ; preds = %100, %88
  call void @llvm.lifetime.end.p0(i64 8, ptr %14) #11
  %102 = load i32, ptr %13, align 4
  switch i32 %102, label %109 [
    i32 0, label %103
  ]

103:                                              ; preds = %101
  br label %104

104:                                              ; preds = %103
  %105 = load i32, ptr %8, align 4
  %106 = add i32 %105, 1
  store i32 %106, ptr %8, align 4
  br label %50, !llvm.loop !13

107:                                              ; preds = %50
  %108 = load ptr, ptr %7, align 8
  store i32 2, ptr %108, align 4
  store i1 false, ptr %4, align 1
  store i32 1, ptr %13, align 4
  br label %109

109:                                              ; preds = %107, %101, %48
  call void @llvm.lifetime.end.p0(i64 4, ptr %12) #11
  call void @llvm.lifetime.end.p0(i64 4, ptr %11) #11
  call void @llvm.lifetime.end.p0(i64 8, ptr %10) #11
  call void @llvm.lifetime.end.p0(i64 8, ptr %9) #11
  call void @llvm.lifetime.end.p0(i64 4, ptr %8) #11
  %110 = load i1, ptr %4, align 1
  ret i1 %110
}