; Function Attrs: null_pointer_is_valid sspstrong uwtable
define internal fastcc noundef zeroext i1 @is_rtsp_request_or_reply(ptr noundef %0, i64 noundef range(i64 -2147483648, 2147483648) %1, ptr noundef writeonly captures(none) %2) unnamed_addr #0 {
  %4 = alloca ptr, align 8
  %5 = alloca ptr, align 8
  %6 = alloca [4 x i8], align 1
  call void @llvm.lifetime.start.p0(i64 8, ptr nonnull %4) #13
  call void @llvm.lifetime.start.p0(i64 8, ptr nonnull %5) #13
  call void @llvm.lifetime.start.p0(i64 4, ptr nonnull %6) #13
  %7 = icmp ugt i64 %1, 4
  br i1 %7, label %8, label %24

8:                                                ; preds = %3
  %9 = tail call i32 @g_ascii_strncasecmp(ptr noundef nonnull @.str.121, ptr noundef %0, i64 noundef 5)
  %10 = icmp eq i32 %9, 0
  br i1 %10, label %11, label %24

11:                                               ; preds = %8
  store i32 1, ptr %2, align 4
  %12 = getelementptr i8, ptr %0, i64 %1
  %13 = call i32 @get_token_len(ptr noundef %0, ptr noundef %12, ptr noundef nonnull %4)
  %.not34 = icmp eq i32 %13, 0
  br i1 %.not34, label %49, label %14

14:                                               ; preds = %11
  %15 = load ptr, ptr %4, align 8
  %16 = call i32 @get_token_len(ptr noundef %15, ptr noundef %12, ptr noundef nonnull %5)
  %17 = icmp sgt i32 %16, 2
  br i1 %17, label %18, label %49

18:                                               ; preds = %14
  %19 = load ptr, ptr %4, align 8
  call void @llvm.memcpy.p0.p0.i64(ptr noundef nonnull align 1 dereferenceable(3) %6, ptr noundef align 1 dereferenceable(3) %19, i64 noundef 3, i1 noundef false) #13
  %20 = getelementptr inbounds nuw i8, ptr %6, i64 3
  store i8 0, ptr %20, align 1
  %21 = load ptr, ptr @rtsp_stat_info, align 8
  %22 = getelementptr inbounds nuw i8, ptr %21, i64 16
  %23 = call zeroext i1 @ws_strtou32(ptr noundef nonnull %6, ptr noundef null, ptr noundef nonnull %22)
  br label %49

24:                                               ; preds = %8, %3
  %25 = load ptr, ptr @g_ascii_table, align 8
  br label %26

26:                                               ; preds = %24, %47
  %indvars.iv = phi i64 [ 0, %24 ], [ %indvars.iv.next, %47 ]
  %27 = getelementptr [11 x ptr], ptr @rtsp_methods, i64 0, i64 %indvars.iv
  %28 = load ptr, ptr %27, align 8
  %29 = tail call i64 @strlen(ptr noundef %28) #15
  %.not = icmp ult i64 %1, %29
  br i1 %.not, label %47, label %30

30:                                               ; preds = %26
  %31 = tail call i32 @g_ascii_strncasecmp(ptr noundef %28, ptr noundef %0, i64 noundef %29)
  %32 = icmp eq i32 %31, 0
  br i1 %32, label %33, label %47

33:                                               ; preds = %30
  %34 = icmp eq i64 %29, %1
  br i1 %34, label %.critedge, label %35

35:                                               ; preds = %33
  %36 = getelementptr i8, ptr %0, i64 %29
  %37 = load i8, ptr %36, align 1
  %38 = zext i8 %37 to i64
  %39 = getelementptr i16, ptr %25, i64 %38
  %40 = load i16, ptr %39, align 2
  %41 = and i16 %40, 256
  %.not33 = icmp eq i16 %41, 0
  br i1 %.not33, label %47, label %.critedge

.critedge:                                        ; preds = %35, %33
  %.lcssa = phi i64 [ %29, %35 ], [ %1, %33 ]
  store i32 0, ptr %2, align 4
  %42 = tail call ptr @wmem_packet_scope()
  %43 = add i64 %.lcssa, 1
  %44 = tail call noalias ptr @wmem_strndup(ptr noundef %42, ptr noundef %28, i64 noundef %43)
  %45 = load ptr, ptr @rtsp_stat_info, align 8
  %46 = getelementptr inbounds nuw i8, ptr %45, i64 8
  store ptr %44, ptr %46, align 8
  br label %49

47:                                               ; preds = %35, %30, %26
  %indvars.iv.next = add nuw nsw i64 %indvars.iv, 1
  %exitcond.not = icmp eq i64 %indvars.iv.next, 11
  br i1 %exitcond.not, label %48, label %26, !llvm.loop !30

48:                                               ; preds = %47
  store i32 2, ptr %2, align 4
  br label %49

49:                                               ; preds = %.critedge, %11, %18, %14, %48
  %.0 = phi i1 [ false, %48 ], [ true, %14 ], [ true, %18 ], [ true, %11 ], [ true, %.critedge ]
  call void @llvm.lifetime.end.p0(i64 4, ptr nonnull %6) #13
  call void @llvm.lifetime.end.p0(i64 8, ptr nonnull %5) #13
  call void @llvm.lifetime.end.p0(i64 8, ptr nonnull %4) #13
  ret i1 %.0
}